; Function Attrs: mustprogress nofree norecurse nosync nounwind willreturn memory(read, argmem: readwrite, inaccessiblemem: none) uwtable
define internal noundef float @_ZN5faiss12_GLOBAL__N_114FlatHammingDisINS_17HammingComputer32EEclEl(ptr nocapture noundef nonnull align 8 dereferenceable(64) %0, i64 noundef %1) unnamed_addr #18 align 2 {
  %3 = getelementptr inbounds i8, ptr %0, i64 24
  %4 = load i64, ptr %3, align 8
  %5 = add i64 %4, 1
  store i64 %5, ptr %3, align 8
  %6 = getelementptr inbounds i8, ptr %0, i64 32
  %7 = getelementptr inbounds i8, ptr %0, i64 16
  %8 = load ptr, ptr %7, align 8
  %9 = getelementptr inbounds i8, ptr %0, i64 8
  %10 = load i32, ptr %9, align 8
  %11 = sext i32 %10 to i64
  %12 = mul nsw i64 %11, %1
  %13 = getelementptr inbounds i8, ptr %8, i64 %12
  %14 = load <4 x i64>, ptr %13, align 8
  %15 = load <4 x i64>, ptr %6, align 8
  %16 = xor <4 x i64> %15, %14
  %17 = tail call <4 x i64> @llvm.ctpop.v4i64(<4 x i64> %16), !range !29
  %18 = tail call i64 @llvm.vector.reduce.add.v4i64(<4 x i64> %17)
  %19 = trunc i64 %18 to i32
  %20 = sitofp i32 %19 to float
  ret float %20
}